; Function Attrs: nounwind uwtable
define dso_local ptr @dsa_get_address(ptr noundef captures(none) %0, i64 noundef %1) local_unnamed_addr #0 {
  %.not = icmp eq i64 %1, 0
  br i1 %.not, label %25, label %3

3:                                                ; preds = %2
  tail call void asm sideeffect "", "~{memory},~{dirflag},~{fpsr},~{flags}"() #11, !srcloc !9
  %4 = load ptr, ptr %0, align 8
  %5 = getelementptr inbounds nuw i8, ptr %4, i64 6160
  %6 = load i64, ptr %5, align 8
  %7 = getelementptr inbounds nuw i8, ptr %0, i64 40984
  %8 = load i64, ptr %7, align 8
  %.not.i = icmp eq i64 %8, %6
  br i1 %.not.i, label %check_for_freed_segments.exit, label %9, !prof !10

9:                                                ; preds = %3
  %10 = getelementptr inbounds nuw i8, ptr %4, i64 6172
  %11 = tail call zeroext i1 @LWLockAcquire(ptr noundef nonnull %10, i32 noundef 0) #11
  tail call fastcc void @check_for_freed_segments_locked(ptr noundef nonnull %0)
  %12 = load ptr, ptr %0, align 8
  %13 = getelementptr inbounds nuw i8, ptr %12, i64 6172
  tail call void @LWLockRelease(ptr noundef nonnull %13) #11
  br label %check_for_freed_segments.exit

check_for_freed_segments.exit:                    ; preds = %3, %9
  %14 = lshr i64 %1, 40
  %15 = and i64 %1, 1099511627775
  %.idx = mul nuw nsw i64 %14, 40
  %16 = getelementptr i8, ptr %0, i64 24
  %17 = getelementptr i8, ptr %16, i64 %.idx
  %18 = load ptr, ptr %17, align 8
  %19 = icmp eq ptr %18, null
  br i1 %19, label %20, label %22, !prof !11

20:                                               ; preds = %check_for_freed_segments.exit
  %21 = tail call fastcc ptr @get_segment_by_index(ptr noundef nonnull %0, i64 noundef %14)
  %.pre = load ptr, ptr %17, align 8
  br label %22

22:                                               ; preds = %20, %check_for_freed_segments.exit
  %23 = phi ptr [ %.pre, %20 ], [ %18, %check_for_freed_segments.exit ]
  %24 = getelementptr inbounds nuw i8, ptr %23, i64 %15
  br label %25

25:                                               ; preds = %2, %22
  %.0 = phi ptr [ %24, %22 ], [ null, %2 ]
  ret ptr %.0
}